; Function Attrs: mustprogress uwtable
define hidden void @_ZN19OpenColorIO_v2_5dev29ExposureContrastTransformImpl8setStyleENS_21ExposureContrastStyleE(ptr noundef nonnull align 8 dereferenceable(256) %0, i32 noundef %1) unnamed_addr #0 align 2 {
  %3 = load ptr, ptr %0, align 8, !tbaa !3
  %4 = getelementptr inbounds nuw i8, ptr %3, i64 8
  %5 = load ptr, ptr %4, align 8
  %6 = tail call noundef i32 %5(ptr noundef nonnull align 8 dereferenceable(256) %0) #20
  %7 = tail call noundef i32 @_ZN19OpenColorIO_v2_5dev22ExposureContrastOpData12ConvertStyleENS_21ExposureContrastStyleENS_18TransformDirectionE(i32 noundef %1, i32 noundef %6)
  %8 = getelementptr inbounds nuw i8, ptr %0, i64 176
  store i32 %7, ptr %8, align 8, !tbaa !35
  ret void
}